; ModuleID = 'source-C-CXX/3/2016.cpp'
source_filename = "source-C-CXX/3/2016.cpp"
target datalayout = "e-m:e-p270:32:32-p271:32:32-p272:64:64-i64:64-f80:128-n8:16:32:64-S128"
target triple = "x86_64-pc-linux-gnu"

%"class.std::ios_base::Init" = type { i8 }
%"class.std::basic_istream" = type { i32 (...)**, i64, %"class.std::basic_ios" }
%"class.std::basic_ios" = type { %"class.std::ios_base", %"class.std::basic_ostream"*, i8, i8, %"class.std::basic_streambuf"*, %"class.std::ctype"*, %"class.std::num_put"*, %"class.std::num_get"* }
%"class.std::ios_base" = type { i32 (...)**, i64, i64, i32, i32, i32, %"struct.std::ios_base::_Callback_list"*, %"struct.std::ios_base::_Words", [8 x %"struct.std::ios_base::_Words"], i32, %"struct.std::ios_base::_Words"*, %"class.std::locale" }
%"struct.std::ios_base::_Callback_list" = type { %"struct.std::ios_base::_Callback_list"*, void (i32, %"class.std::ios_base"*, i32)*, i32, i32 }
%"struct.std::ios_base::_Words" = type { i8*, i64 }
%"class.std::locale" = type { %"class.std::locale::_Impl"* }
%"class.std::locale::_Impl" = type { i32, %"class.std::locale::facet"**, i64, %"class.std::locale::facet"**, i8** }
%"class.std::locale::facet" = type <{ i32 (...)**, i32, [4 x i8] }>
%"class.std::basic_ostream" = type { i32 (...)**, %"class.std::basic_ios" }
%"class.std::basic_streambuf" = type { i32 (...)**, i8*, i8*, i8*, i8*, i8*, i8*, %"class.std::locale" }
%"class.std::ctype" = type <{ %"class.std::locale::facet.base", [4 x i8], %struct.__locale_struct*, i8, [7 x i8], i32*, i32*, i16*, i8, [256 x i8], [256 x i8], i8, [6 x i8] }>
%"class.std::locale::facet.base" = type <{ i32 (...)**, i32 }>
%struct.__locale_struct = type { [13 x %struct.__locale_data*], i16*, i32*, i32*, [13 x i8*] }
%struct.__locale_data = type opaque
%"class.std::num_put" = type { %"class.std::locale::facet.base", [4 x i8] }
%"class.std::num_get" = type { %"class.std::locale::facet.base", [4 x i8] }

@_ZStL8__ioinit = internal global %"class.std::ios_base::Init" zeroinitializer, align 1
@__dso_handle = external hidden global i8
@_ZSt3cin = external global %"class.std::basic_istream", align 8
@_ZSt4cout = external global %"class.std::basic_ostream", align 8
@llvm.global_ctors = appending global [1 x { i32, void ()*, i8* }] [{ i32, void ()*, i8* } { i32 65535, void ()* @_GLOBAL__sub_I_2016.cpp, i8* null }]

declare void @_ZNSt8ios_base4InitC1Ev(%"class.std::ios_base::Init"* nonnull align 1 dereferenceable(1)) unnamed_addr #0

; Function Attrs: nounwind
declare void @_ZNSt8ios_base4InitD1Ev(%"class.std::ios_base::Init"* nonnull align 1 dereferenceable(1)) unnamed_addr #1

; Function Attrs: nofree nounwind
declare i32 @__cxa_atexit(void (i8*)*, i8*, i8*) local_unnamed_addr #2

; Function Attrs: mustprogress norecurse sspstrong uwtable
define dso_local i32 @main() local_unnamed_addr #3 {
  %1 = alloca i32, align 4
  %2 = alloca i32, align 4
  %3 = alloca [100 x [100 x i32]], align 16
  %4 = bitcast i32* %1 to i8*
  call void @llvm.lifetime.start.p0i8(i64 4, i8* nonnull %4) #8
  %5 = bitcast i32* %2 to i8*
  call void @llvm.lifetime.start.p0i8(i64 4, i8* nonnull %5) #8
  %6 = bitcast [100 x [100 x i32]]* %3 to i8*
  call void @llvm.lifetime.start.p0i8(i64 40000, i8* nonnull %6) #8
  call void @llvm.memset.p0i8.i64(i8* noundef nonnull align 16 dereferenceable(40000) %6, i8 0, i64 40000, i1 false)
  %7 = call nonnull align 8 dereferenceable(16) %"class.std::basic_istream"* @_ZNSirsERi(%"class.std::basic_istream"* nonnull align 8 dereferenceable(16) @_ZSt3cin, i32* nonnull align 4 dereferenceable(4) %1)
  %8 = call nonnull align 8 dereferenceable(16) %"class.std::basic_istream"* @_ZNSirsERi(%"class.std::basic_istream"* nonnull align 8 dereferenceable(16) %7, i32* nonnull align 4 dereferenceable(4) %2)
  %9 = load i32, i32* %1, align 4, !tbaa !5
  %10 = icmp sgt i32 %9, 0
  %11 = load i32, i32* %2, align 4, !tbaa !5
  br i1 %10, label %12, label %19

12:                                               ; preds = %0
  %13 = icmp sgt i32 %11, 0
  br i1 %13, label %14, label %42

14:                                               ; preds = %12, %33
  %15 = phi i32 [ %34, %33 ], [ %9, %12 ]
  %16 = phi i32 [ %35, %33 ], [ %11, %12 ]
  %17 = phi i64 [ %36, %33 ], [ 0, %12 ]
  %18 = icmp sgt i32 %16, 0
  br i1 %18, label %23, label %33

19:                                               ; preds = %33, %0
  %20 = phi i32 [ %9, %0 ], [ %34, %33 ]
  %21 = phi i32 [ %11, %0 ], [ %35, %33 ]
  %22 = icmp sgt i32 %21, 0
  br i1 %22, label %39, label %42

23:                                               ; preds = %14, %23
  %24 = phi i64 [ %27, %23 ], [ 0, %14 ]
  %25 = getelementptr inbounds [100 x [100 x i32]], [100 x [100 x i32]]* %3, i64 0, i64 %17, i64 %24
  %26 = call nonnull align 8 dereferenceable(16) %"class.std::basic_istream"* @_ZNSirsERi(%"class.std::basic_istream"* nonnull align 8 dereferenceable(16) @_ZSt3cin, i32* nonnull align 4 dereferenceable(4) %25)
  %27 = add nuw nsw i64 %24, 1
  %28 = load i32, i32* %2, align 4, !tbaa !5
  %29 = sext i32 %28 to i64
  %30 = icmp slt i64 %27, %29
  br i1 %30, label %23, label %31, !llvm.loop !9

31:                                               ; preds = %23
  %32 = load i32, i32* %1, align 4, !tbaa !5
  br label %33

33:                                               ; preds = %31, %14
  %34 = phi i32 [ %32, %31 ], [ %15, %14 ]
  %35 = phi i32 [ %28, %31 ], [ %16, %14 ]
  %36 = add nuw nsw i64 %17, 1
  %37 = sext i32 %34 to i64
  %38 = icmp slt i64 %36, %37
  br i1 %38, label %14, label %19, !llvm.loop !11

39:                                               ; preds = %19, %88
  %40 = phi i64 [ %92, %88 ], [ 0, %19 ]
  %41 = phi i32 [ %89, %88 ], [ 0, %19 ]
  br label %46

42:                                               ; preds = %88, %12, %19
  %43 = phi i32 [ %21, %19 ], [ %11, %12 ], [ %90, %88 ]
  %44 = phi i32 [ %20, %19 ], [ %9, %12 ], [ %84, %88 ]
  %45 = icmp sgt i32 %44, 1
  br i1 %45, label %93, label %146

46:                                               ; preds = %39, %79
  %47 = phi i64 [ %40, %39 ], [ %50, %79 ]
  %48 = phi i64 [ 0, %39 ], [ %49, %79 ]
  %49 = add nuw nsw i64 %48, 1
  %50 = add nsw i64 %47, -1
  %51 = getelementptr inbounds [100 x [100 x i32]], [100 x [100 x i32]]* %3, i64 0, i64 %48, i64 %47
  %52 = load i32, i32* %51, align 4, !tbaa !5
  %53 = call nonnull align 8 dereferenceable(8) %"class.std::basic_ostream"* @_ZNSolsEi(%"class.std::basic_ostream"* nonnull align 8 dereferenceable(8) @_ZSt4cout, i32 %52)
  %54 = bitcast %"class.std::basic_ostream"* %53 to i8**
  %55 = load i8*, i8** %54, align 8, !tbaa !13
  %56 = getelementptr i8, i8* %55, i64 -24
  %57 = bitcast i8* %56 to i64*
  %58 = load i64, i64* %57, align 8
  %59 = bitcast %"class.std::basic_ostream"* %53 to i8*
  %60 = add nsw i64 %58, 240
  %61 = getelementptr inbounds i8, i8* %59, i64 %60
  %62 = bitcast i8* %61 to %"class.std::ctype"**
  %63 = load %"class.std::ctype"*, %"class.std::ctype"** %62, align 8, !tbaa !15
  %64 = icmp eq %"class.std::ctype"* %63, null
  br i1 %64, label %65, label %66

65:                                               ; preds = %46
  call void @_ZSt16__throw_bad_castv() #9
  unreachable

66:                                               ; preds = %46
  %67 = getelementptr inbounds %"class.std::ctype", %"class.std::ctype"* %63, i64 0, i32 8
  %68 = load i8, i8* %67, align 8, !tbaa !19
  %69 = icmp eq i8 %68, 0
  br i1 %69, label %73, label %70

70:                                               ; preds = %66
  %71 = getelementptr inbounds %"class.std::ctype", %"class.std::ctype"* %63, i64 0, i32 9, i64 10
  %72 = load i8, i8* %71, align 1, !tbaa !21
  br label %79

73:                                               ; preds = %66
  call void @_ZNKSt5ctypeIcE13_M_widen_initEv(%"class.std::ctype"* nonnull align 8 dereferenceable(570) %63)
  %74 = bitcast %"class.std::ctype"* %63 to i8 (%"class.std::ctype"*, i8)***
  %75 = load i8 (%"class.std::ctype"*, i8)**, i8 (%"class.std::ctype"*, i8)*** %74, align 8, !tbaa !13
  %76 = getelementptr inbounds i8 (%"class.std::ctype"*, i8)*, i8 (%"class.std::ctype"*, i8)** %75, i64 6
  %77 = load i8 (%"class.std::ctype"*, i8)*, i8 (%"class.std::ctype"*, i8)** %76, align 8
  %78 = call signext i8 %77(%"class.std::ctype"* nonnull align 8 dereferenceable(570) %63, i8 signext 10)
  br label %79

79:                                               ; preds = %70, %73
  %80 = phi i8 [ %72, %70 ], [ %78, %73 ]
  %81 = call nonnull align 8 dereferenceable(8) %"class.std::basic_ostream"* @_ZNSo3putEc(%"class.std::basic_ostream"* nonnull align 8 dereferenceable(8) %53, i8 signext %80)
  %82 = call nonnull align 8 dereferenceable(8) %"class.std::basic_ostream"* @_ZNSo5flushEv(%"class.std::basic_ostream"* nonnull align 8 dereferenceable(8) %81)
  %83 = icmp sgt i64 %47, 0
  %84 = load i32, i32* %1, align 4
  %85 = sext i32 %84 to i64
  %86 = icmp slt i64 %49, %85
  %87 = select i1 %83, i1 %86, i1 false
  br i1 %87, label %46, label %88, !llvm.loop !22

88:                                               ; preds = %79
  %89 = add nuw nsw i32 %41, 1
  %90 = load i32, i32* %2, align 4, !tbaa !5
  %91 = icmp slt i32 %89, %90
  %92 = add nuw nsw i64 %40, 1
  br i1 %91, label %39, label %42, !llvm.loop !23

93:                                               ; preds = %42, %143
  %94 = phi i32 [ %145, %143 ], [ %43, %42 ]
  %95 = phi i64 [ %144, %143 ], [ 1, %42 ]
  %96 = phi i32 [ %141, %143 ], [ 1, %42 ]
  %97 = sext i32 %94 to i64
  br label %98

98:                                               ; preds = %131, %93
  %99 = phi i64 [ %102, %131 ], [ %95, %93 ]
  %100 = phi i64 [ %101, %131 ], [ %97, %93 ]
  %101 = add nsw i64 %100, -1
  %102 = add nuw nsw i64 %99, 1
  %103 = getelementptr inbounds [100 x [100 x i32]], [100 x [100 x i32]]* %3, i64 0, i64 %99, i64 %101
  %104 = load i32, i32* %103, align 4, !tbaa !5
  %105 = call nonnull align 8 dereferenceable(8) %"class.std::basic_ostream"* @_ZNSolsEi(%"class.std::basic_ostream"* nonnull align 8 dereferenceable(8) @_ZSt4cout, i32 %104)
  %106 = bitcast %"class.std::basic_ostream"* %105 to i8**
  %107 = load i8*, i8** %106, align 8, !tbaa !13
  %108 = getelementptr i8, i8* %107, i64 -24
  %109 = bitcast i8* %108 to i64*
  %110 = load i64, i64* %109, align 8
  %111 = bitcast %"class.std::basic_ostream"* %105 to i8*
  %112 = add nsw i64 %110, 240
  %113 = getelementptr inbounds i8, i8* %111, i64 %112
  %114 = bitcast i8* %113 to %"class.std::ctype"**
  %115 = load %"class.std::ctype"*, %"class.std::ctype"** %114, align 8, !tbaa !15
  %116 = icmp eq %"class.std::ctype"* %115, null
  br i1 %116, label %117, label %118

117:                                              ; preds = %98
  call void @_ZSt16__throw_bad_castv() #9
  unreachable

118:                                              ; preds = %98
  %119 = getelementptr inbounds %"class.std::ctype", %"class.std::ctype"* %115, i64 0, i32 8
  %120 = load i8, i8* %119, align 8, !tbaa !19
  %121 = icmp eq i8 %120, 0
  br i1 %121, label %125, label %122

122:                                              ; preds = %118
  %123 = getelementptr inbounds %"class.std::ctype", %"class.std::ctype"* %115, i64 0, i32 9, i64 10
  %124 = load i8, i8* %123, align 1, !tbaa !21
  br label %131

125:                                              ; preds = %118
  call void @_ZNKSt5ctypeIcE13_M_widen_initEv(%"class.std::ctype"* nonnull align 8 dereferenceable(570) %115)
  %126 = bitcast %"class.std::ctype"* %115 to i8 (%"class.std::ctype"*, i8)***
  %127 = load i8 (%"class.std::ctype"*, i8)**, i8 (%"class.std::ctype"*, i8)*** %126, align 8, !tbaa !13
  %128 = getelementptr inbounds i8 (%"class.std::ctype"*, i8)*, i8 (%"class.std::ctype"*, i8)** %127, i64 6
  %129 = load i8 (%"class.std::ctype"*, i8)*, i8 (%"class.std::ctype"*, i8)** %128, align 8
  %130 = call signext i8 %129(%"class.std::ctype"* nonnull align 8 dereferenceable(570) %115, i8 signext 10)
  br label %131

131:                                              ; preds = %122, %125
  %132 = phi i8 [ %124, %122 ], [ %130, %125 ]
  %133 = call nonnull align 8 dereferenceable(8) %"class.std::basic_ostream"* @_ZNSo3putEc(%"class.std::basic_ostream"* nonnull align 8 dereferenceable(8) %105, i8 signext %132)
  %134 = call nonnull align 8 dereferenceable(8) %"class.std::basic_ostream"* @_ZNSo5flushEv(%"class.std::basic_ostream"* nonnull align 8 dereferenceable(8) %133)
  %135 = load i32, i32* %1, align 4, !tbaa !5
  %136 = trunc i64 %102 to i32
  %137 = icmp sgt i32 %135, %136
  %138 = icmp sgt i64 %100, 1
  %139 = select i1 %137, i1 %138, i1 false
  br i1 %139, label %98, label %140, !llvm.loop !24

140:                                              ; preds = %131
  %141 = add nuw nsw i32 %96, 1
  %142 = icmp slt i32 %141, %135
  br i1 %142, label %143, label %146, !llvm.loop !25

143:                                              ; preds = %140
  %144 = add nuw nsw i64 %95, 1
  %145 = load i32, i32* %2, align 4, !tbaa !5
  br label %93

146:                                              ; preds = %140, %42
  call void @llvm.lifetime.end.p0i8(i64 40000, i8* nonnull %6) #8
  call void @llvm.lifetime.end.p0i8(i64 4, i8* nonnull %5) #8
  call void @llvm.lifetime.end.p0i8(i64 4, i8* nonnull %4) #8
  ret i32 0
}

; Function Attrs: argmemonly mustprogress nofree nosync nounwind willreturn
declare void @llvm.lifetime.start.p0i8(i64 immarg, i8* nocapture) #4

; Function Attrs: argmemonly mustprogress nofree nounwind willreturn writeonly
declare void @llvm.memset.p0i8.i64(i8* nocapture writeonly, i8, i64, i1 immarg) #5

declare nonnull align 8 dereferenceable(16) %"class.std::basic_istream"* @_ZNSirsERi(%"class.std::basic_istream"* nonnull align 8 dereferenceable(16), i32* nonnull align 4 dereferenceable(4)) local_unnamed_addr #0

declare nonnull align 8 dereferenceable(8) %"class.std::basic_ostream"* @_ZNSolsEi(%"class.std::basic_ostream"* nonnull align 8 dereferenceable(8), i32) local_unnamed_addr #0

; Function Attrs: argmemonly mustprogress nofree nosync nounwind willreturn
declare void @llvm.lifetime.end.p0i8(i64 immarg, i8* nocapture) #4

declare nonnull align 8 dereferenceable(8) %"class.std::basic_ostream"* @_ZNSo3putEc(%"class.std::basic_ostream"* nonnull align 8 dereferenceable(8), i8 signext) local_unnamed_addr #0

declare nonnull align 8 dereferenceable(8) %"class.std::basic_ostream"* @_ZNSo5flushEv(%"class.std::basic_ostream"* nonnull align 8 dereferenceable(8)) local_unnamed_addr #0

; Function Attrs: noreturn
declare void @_ZSt16__throw_bad_castv() local_unnamed_addr #6

declare void @_ZNKSt5ctypeIcE13_M_widen_initEv(%"class.std::ctype"* nonnull align 8 dereferenceable(570)) local_unnamed_addr #0

; Function Attrs: sspstrong uwtable
define internal void @_GLOBAL__sub_I_2016.cpp() #7 section ".text.startup" {
  tail call void @_ZNSt8ios_base4InitC1Ev(%"class.std::ios_base::Init"* nonnull align 1 dereferenceable(1) @_ZStL8__ioinit)
  %1 = tail call i32 @__cxa_atexit(void (i8*)* bitcast (void (%"class.std::ios_base::Init"*)* @_ZNSt8ios_base4InitD1Ev to void (i8*)*), i8* getelementptr inbounds (%"class.std::ios_base::Init", %"class.std::ios_base::Init"* @_ZStL8__ioinit, i64 0, i32 0), i8* nonnull @__dso_handle) #8
  ret void
}


!llvm.module.flags = !{!0, !1, !2, !3}
!llvm.ident = !{!4}

!0 = !{i32 1, !"wchar_size", i32 4}
!1 = !{i32 7, !"PIC Level", i32 2}
!2 = !{i32 7, !"PIE Level", i32 2}
!3 = !{i32 7, !"uwtable", i32 1}
!4 = !{!"clang version 13.0.0"}
!5 = !{!6, !6, i64 0}
!6 = !{!"int", !7, i64 0}
!7 = !{!"omnipotent char", !8, i64 0}
!8 = !{!"Simple C++ TBAA"}
!9 = distinct !{!9, !10}
!10 = !{!"llvm.loop.mustprogress"}
!11 = distinct !{!11, !10, !12}
!12 = !{!"llvm.loop.unswitch.partial.disable"}
!13 = !{!14, !14, i64 0}
!14 = !{!"vtable pointer", !8, i64 0}
!15 = !{!16, !17, i64 240}
!16 = !{!"_ZTSSt9basic_iosIcSt11char_traitsIcEE", !17, i64 216, !7, i64 224, !18, i64 225, !17, i64 232, !17, i64 240, !17, i64 248, !17, i64 256}
!17 = !{!"any pointer", !7, i64 0}
!18 = !{!"bool", !7, i64 0}
!19 = !{!20, !7, i64 56}
!20 = !{!"_ZTSSt5ctypeIcE", !17, i64 16, !18, i64 24, !17, i64 32, !17, i64 40, !17, i64 48, !7, i64 56, !7, i64 57, !7, i64 313, !7, i64 569}
!21 = !{!7, !7, i64 0}
!22 = distinct !{!22, !10}
!23 = distinct !{!23, !10}
!24 = distinct !{!24, !10}
!25 = distinct !{!25, !10}
